; Function Attrs: nounwind uwtable
define internal range(i32 0, 2) i32 @_find_job_by_preempt_mode(ptr noundef %0, ptr noundef readonly captures(none) %1) #0 {
  %3 = alloca i16, align 2
  %4 = load i16, ptr %1, align 2
  call void @llvm.lifetime.start.p0(i64 2, ptr nonnull %3) #8
  store i16 0, ptr %3, align 2
  %5 = load ptr, ptr getelementptr inbounds nuw (i8, ptr @ops, i64 16), align 8
  %6 = call i32 %5(ptr noundef %0, i32 noundef 1, ptr noundef nonnull %3) #8
  %7 = getelementptr inbounds nuw i8, ptr %0, i64 1114
  %8 = load i16, ptr %7, align 2
  %9 = and i16 %8, 256
  %10 = icmp ne i16 %9, 0
  %11 = load i16, ptr %3, align 2
  %12 = icmp ne i16 %11, 2
  %or.cond.i = select i1 %10, i1 %12, i1 false
  %spec.select.i = select i1 %or.cond.i, i16 8, i16 %11
  call void @llvm.lifetime.end.p0(i64 2, ptr nonnull %3) #8
  %13 = icmp eq i16 %spec.select.i, %4
  %. = zext i1 %13 to i32
  ret i32 %.
}